target datalayout = "e-m:e-p270:32:32-p271:32:32-p272:64:64-i64:64-i128:128-f80:128-n8:16:32:64-S128"
target triple = "x86_64-pc-linux-gnu"

%struct.OGLContext = type { ptr, i32, i32, float, i32, i32, i8, i8, i8, i8, i32, i8, ptr, i32, i32, i8 }

@vertexCache = internal global ptr null, align 8
@j2d_glTexCoordPointer = external global ptr, align 8
@j2d_glColorPointer = external global ptr, align 8
@j2d_glVertexPointer = external global ptr, align 8
@j2d_glEnableClientState = external global ptr, align 8

; Function Attrs: nounwind uwtable
define hidden zeroext i8 @OGLVertexCache_InitVertexCache(ptr noundef %0) #0 {
  %2 = alloca i8, align 1
  %3 = alloca ptr, align 8
  store ptr %0, ptr %3, align 8
  %4 = load ptr, ptr @vertexCache, align 8
  %5 = icmp eq ptr %4, null
  br i1 %5, label %6, label %12

6:                                                ; preds = %1
  %7 = call noalias ptr @malloc(i64 noundef 20480) #4
  store ptr %7, ptr @vertexCache, align 8
  %8 = load ptr, ptr @vertexCache, align 8
  %9 = icmp eq ptr %8, null
  br i1 %9, label %10, label %11

10:                                               ; preds = %6
  store i8 0, ptr %2, align 1
  br label %32

11:                                               ; preds = %6
  br label %12

12:                                               ; preds = %11, %1
  %13 = load ptr, ptr %3, align 8
  %14 = getelementptr inbounds %struct.OGLContext, ptr %13, i32 0, i32 15
  %15 = load i8, ptr %14, align 8
  %16 = icmp ne i8 %15, 0
  br i1 %16, label %31, label %17

17:                                               ; preds = %12
  %18 = load ptr, ptr @j2d_glTexCoordPointer, align 8
  %19 = load ptr, ptr @vertexCache, align 8
  call void %18(i32 noundef 2, i32 noundef 5126, i32 noundef 20, ptr noundef %19)
  %20 = load ptr, ptr @j2d_glColorPointer, align 8
  %21 = load ptr, ptr @vertexCache, align 8
  %22 = getelementptr inbounds float, ptr %21, i64 2
  call void %20(i32 noundef 4, i32 noundef 5121, i32 noundef 20, ptr noundef %22)
  %23 = load ptr, ptr @j2d_glVertexPointer, align 8
  %24 = load ptr, ptr @vertexCache, align 8
  %25 = getelementptr inbounds float, ptr %24, i64 3
  call void %23(i32 noundef 2, i32 noundef 5126, i32 noundef 20, ptr noundef %25)
  %26 = load ptr, ptr @j2d_glEnableClientState, align 8
  call void %26(i32 noundef 32888)
  %27 = load ptr, ptr @j2d_glEnableClientState, align 8
  call void %27(i32 noundef 32886)
  %28 = load ptr, ptr @j2d_glEnableClientState, align 8
  call void %28(i32 noundef 32884)
  %29 = load ptr, ptr %3, align 8
  %30 = getelementptr inbounds %struct.OGLContext, ptr %29, i32 0, i32 15
  store i8 1, ptr %30, align 8
  br label %31

31:                                               ; preds = %17, %12
  store i8 1, ptr %2, align 1
  br label %32

32:                                               ; preds = %31, %10
  %33 = load i8, ptr %2, align 1
  ret i8 %33
}