; Function Attrs: nounwind uwtable
define hidden zeroext range(i8 0, 2) i8 @OGLVertexCache_InitVertexCache(ptr nocapture noundef %0) local_unnamed_addr #0 {
  %2 = load ptr, ptr @vertexCache, align 8
  %3 = icmp eq ptr %2, null
  br i1 %3, label %4, label %7

4:                                                ; preds = %1
  %5 = tail call noalias dereferenceable_or_null(20480) ptr @malloc(i64 noundef 20480) #5
  store ptr %5, ptr @vertexCache, align 8
  %6 = icmp eq ptr %5, null
  br i1 %6, label %22, label %7

7:                                                ; preds = %4, %1
  %8 = phi ptr [ %5, %4 ], [ %2, %1 ]
  %9 = getelementptr inbounds i8, ptr %0, i64 56
  %10 = load i8, ptr %9, align 8
  %.not = icmp eq i8 %10, 0
  br i1 %.not, label %11, label %22

11:                                               ; preds = %7
  %12 = load ptr, ptr @j2d_glTexCoordPointer, align 8
  tail call void %12(i32 noundef 2, i32 noundef 5126, i32 noundef 20, ptr noundef nonnull %8) #6
  %13 = load ptr, ptr @j2d_glColorPointer, align 8
  %14 = load ptr, ptr @vertexCache, align 8
  %15 = getelementptr inbounds i8, ptr %14, i64 8
  tail call void %13(i32 noundef 4, i32 noundef 5121, i32 noundef 20, ptr noundef nonnull %15) #6
  %16 = load ptr, ptr @j2d_glVertexPointer, align 8
  %17 = load ptr, ptr @vertexCache, align 8
  %18 = getelementptr inbounds i8, ptr %17, i64 12
  tail call void %16(i32 noundef 2, i32 noundef 5126, i32 noundef 20, ptr noundef nonnull %18) #6
  %19 = load ptr, ptr @j2d_glEnableClientState, align 8
  tail call void %19(i32 noundef 32888) #6
  %20 = load ptr, ptr @j2d_glEnableClientState, align 8
  tail call void %20(i32 noundef 32886) #6
  %21 = load ptr, ptr @j2d_glEnableClientState, align 8
  tail call void %21(i32 noundef 32884) #6
  store i8 1, ptr %9, align 8
  br label %22

22:                                               ; preds = %7, %11, %4
  %.0 = phi i8 [ 0, %4 ], [ 1, %11 ], [ 1, %7 ]
  ret i8 %.0
}